; Function Attrs: mustprogress uwtable
define hidden noundef zeroext i1 @_ZNK12mpff_manager15min_significandERK4mpff(ptr noundef nonnull readonly align 8 captures(none) dereferenceable(89) %0, ptr noundef nonnull readonly align 4 captures(none) dereferenceable(8) %1) local_unnamed_addr #3 align 2 {
  %3 = getelementptr inbounds nuw i8, ptr %0, i64 8
  %4 = load ptr, ptr %3, align 8, !tbaa !3
  %5 = load i32, ptr %1, align 4
  %6 = lshr i32 %5, 1
  %7 = load i32, ptr %0, align 8, !tbaa !13
  %8 = mul i32 %6, %7
  %9 = zext i32 %8 to i64
  %10 = getelementptr inbounds nuw i32, ptr %4, i64 %9
  %11 = add i32 %7, -1
  %12 = zext i32 %11 to i64
  %13 = getelementptr inbounds nuw i32, ptr %10, i64 %12
  %14 = load i32, ptr %13, align 4, !tbaa !21
  %15 = icmp eq i32 %14, -2147483648
  br i1 %15, label %16, label %18

16:                                               ; preds = %2
  %17 = tail call noundef zeroext i1 @_Z7is_zerojPKj(i32 noundef %11, ptr noundef nonnull %10)
  br label %18

18:                                               ; preds = %16, %2
  %19 = phi i1 [ false, %2 ], [ %17, %16 ]
  ret i1 %19
}